CCS PCM C Compiler, Version 5.101, 43599               28-Aug-22 00:01

               Filename:   C:\Users\HP\Desktop\PIC12F629\main.lst

               ROM used:   82 words (8%)
                           Largest free fragment is 942
               RAM used:   6 (9%) at main() level
                           7 (11%) worst case
               Stack used: 0 locations
               Stack size: 8

*
0000:  MOVLW  00
0001:  MOVWF  0A
0002:  GOTO   004
0003:  NOP
0004:  CALL   3FF
0005:  BSF    03.5
0006:  MOVWF  10
0007:  MOVLW  00
0008:  MOVWF  0A
0009:  GOTO   01E
.................... #include <main.h>
.................... #include <12F629.h>
.................... //////////// Standard Header file for the PIC12F629 device ////////////////
.................... ///////////////////////////////////////////////////////////////////////////
.................... ////        (C) Copyright 1996, 2020 Custom Computer Services          ////
.................... //// This source code may only be used by licensed users of the CCS C  ////
.................... //// compiler.  This source code may only be distributed to other      ////
.................... //// licensed users of the CCS C compiler.  No other use, reproduction ////
.................... //// or distribution is permitted without written permission.          ////
.................... //// Derivative programs created using this software in object code    ////
.................... //// form are not restricted in any way.                               ////
.................... ///////////////////////////////////////////////////////////////////////////
.................... #device PIC12F629
.................... 
.................... #list
.................... 
.................... #FUSES NOWDT,INTRC_IO,NOPROTECT,NOMCLR,NOPUT
.................... #use delay(internal=4MHz)
000A:  MOVLW  26
000B:  MOVWF  04
000C:  MOVF   00,W
000D:  BTFSC  03.2
000E:  GOTO   01D
000F:  MOVLW  01
0010:  MOVWF  21
0011:  CLRF   20
0012:  DECFSZ 20,F
0013:  GOTO   012
0014:  DECFSZ 21,F
0015:  GOTO   011
0016:  MOVLW  4A
0017:  MOVWF  20
0018:  DECFSZ 20,F
0019:  GOTO   018
001A:  GOTO   01B
001B:  DECFSZ 00,F
001C:  GOTO   00F
001D:  RETURN
.................... #use FIXED_IO( A_outputs=PIN_A3,PIN_A2 )
.................... #define bnt_1   PIN_A0
.................... #define bnt_2   PIN_A1
.................... #define led_1   PIN_A2
.................... #define led_2   PIN_A3
.................... 
.................... 
.................... 
.................... 
.................... int bien_bnt1 = 0;
.................... void main()
001E:  MOVF   03,W
001F:  ANDLW  1F
0020:  MOVWF  03
0021:  CLRF   24
0022:  MOVLW  07
0023:  MOVWF  19
.................... {
....................    port_a_pullups(0x03);
0024:  MOVLW  03
0025:  BSF    03.5
0026:  MOVWF  15
0027:  BCF    01.7
....................    output_low(led_1);
0028:  MOVLW  F3
0029:  MOVWF  05
002A:  BCF    03.5
002B:  BCF    05.2
....................    output_low(led_2);
002C:  BSF    03.5
002D:  MOVWF  05
002E:  BCF    03.5
002F:  BCF    05.3
....................    while(TRUE)
....................    {
....................       if(input(bnt_1) == 0)
0030:  MOVLW  F3
0031:  BSF    03.5
0032:  MOVWF  05
0033:  BCF    03.5
0034:  BTFSC  05.0
0035:  GOTO   03B
....................       {
....................          delay_ms(200);
0036:  MOVLW  C8
0037:  MOVWF  26
0038:  CALL   00A
....................          bien_bnt1 = 1;
0039:  MOVLW  01
003A:  MOVWF  24
....................       }
....................       if(bien_bnt1)
003B:  MOVF   24,F
003C:  BTFSC  03.2
003D:  GOTO   050
....................       {
....................          bien_bnt1 = 0;
003E:  CLRF   24
....................          output_high(led_1);
003F:  MOVLW  F3
0040:  BSF    03.5
0041:  MOVWF  05
0042:  BCF    03.5
0043:  BSF    05.2
....................          delay_ms(3000);
0044:  MOVLW  0C
0045:  MOVWF  25
0046:  MOVLW  FA
0047:  MOVWF  26
0048:  CALL   00A
0049:  DECFSZ 25,F
004A:  GOTO   046
....................          output_low(led_1);
004B:  MOVLW  F3
004C:  BSF    03.5
004D:  MOVWF  05
004E:  BCF    03.5
004F:  BCF    05.2
....................       }
0050:  GOTO   030
....................    }
.................... }
0051:  SLEEP

Configuration Fuses:
   Word  1: 31D4   INTRC_IO NOWDT NOPUT NOMCLR BROWNOUT NOPROTECT NOCPD
